; Function Attrs: mustprogress uwtable
define hidden void @_ZN4cvc58internal4Subs3addERKSt6vectorINS0_12NodeTemplateILb1EEESaIS4_EES8_(ptr noundef nonnull align 8 dereferenceable(56) %0, ptr noundef nonnull readonly align 8 captures(none) dereferenceable(24) %1, ptr noundef nonnull readonly align 8 captures(none) dereferenceable(24) %2) local_unnamed_addr #6 align 2 {
  %4 = getelementptr inbounds nuw i8, ptr %1, i64 8
  %5 = load ptr, ptr %4, align 8, !tbaa !8
  %6 = load ptr, ptr %1, align 8, !tbaa !10
  %.not = icmp eq ptr %5, %6
  br i1 %.not, label %._crit_edge, label %.lr.ph.preheader

.lr.ph.preheader:                                 ; preds = %3
  %7 = ptrtoint ptr %5 to i64
  %8 = ptrtoint ptr %6 to i64
  %9 = sub i64 %7, %8
  %10 = ashr exact i64 %9, 3
  %umax = tail call i64 @llvm.umax.i64(i64 %10, i64 1)
  br label %.lr.ph

._crit_edge:                                      ; preds = %.lr.ph, %3
  ret void

.lr.ph:                                           ; preds = %.lr.ph.preheader, %.lr.ph
  %.08 = phi i64 [ %15, %.lr.ph ], [ 0, %.lr.ph.preheader ]
  %11 = load ptr, ptr %1, align 8, !tbaa !10
  %12 = getelementptr inbounds nuw %"class.cvc5::internal::NodeTemplate", ptr %11, i64 %.08
  %13 = load ptr, ptr %2, align 8, !tbaa !10
  %14 = getelementptr inbounds nuw %"class.cvc5::internal::NodeTemplate", ptr %13, i64 %.08
  tail call void @_ZN4cvc58internal4Subs3addERKNS0_12NodeTemplateILb1EEES5_(ptr noundef nonnull align 8 dereferenceable(56) %0, ptr noundef nonnull align 8 dereferenceable(8) %12, ptr noundef nonnull align 8 dereferenceable(8) %14)
  %15 = add nuw i64 %.08, 1
  %exitcond.not = icmp eq i64 %15, %umax
  br i1 %exitcond.not, label %._crit_edge, label %.lr.ph, !llvm.loop !40
}